target datalayout = "e-m:e-p270:32:32-p271:32:32-p272:64:64-i64:64-i128:128-f80:128-n8:16:32:64-S128"
target triple = "x86_64-pc-linux-gnu"

%struct.ErrorData = type { i32, i8, i8, i8, i8, ptr, i32, ptr, ptr, ptr, i32, ptr, ptr, ptr, ptr, ptr, ptr, ptr, ptr, ptr, ptr, ptr, ptr, i32, i32, ptr, i32, ptr }

@recursion_depth = internal global i32 0, align 4
@errordata_stack_depth = internal global i32 -1, align 4
@errordata = internal global [5 x %struct.ErrorData] zeroinitializer, align 16
@CurrentMemoryContext = external global ptr, align 8

; Function Attrs: inlinehint nounwind uwtable
define internal ptr @MemoryContextSwitchTo(ptr noundef %0) #1 {
  %2 = alloca ptr, align 8
  %3 = alloca ptr, align 8
  store ptr %0, ptr %2, align 8
  call void @llvm.lifetime.start.p0(i64 8, ptr %3) #16
  %4 = load ptr, ptr @CurrentMemoryContext, align 8
  store ptr %4, ptr %3, align 8
  %5 = load ptr, ptr %2, align 8
  store ptr %5, ptr @CurrentMemoryContext, align 8
  %6 = load ptr, ptr %3, align 8
  call void @llvm.lifetime.end.p0(i64 8, ptr %3) #16
  ret ptr %6
}

; Function Attrs: nounwind uwtable
define dso_local void @ThrowErrorData(ptr noundef %0) #0 {
  %2 = alloca ptr, align 8
  %3 = alloca ptr, align 8
  %4 = alloca ptr, align 8
  %5 = alloca i32, align 4
  store ptr %0, ptr %2, align 8
  call void @llvm.lifetime.start.p0(i64 8, ptr %3) #16
  call void @llvm.lifetime.start.p0(i64 8, ptr %4) #16
  %6 = load ptr, ptr %2, align 8
  %7 = getelementptr inbounds nuw %struct.ErrorData, ptr %6, i32 0, i32 0
  %8 = load i32, ptr %7, align 8
  %9 = load ptr, ptr %2, align 8
  %10 = getelementptr inbounds nuw %struct.ErrorData, ptr %9, i32 0, i32 8
  %11 = load ptr, ptr %10, align 8
  %12 = call zeroext i1 @errstart(i32 noundef %8, ptr noundef %11)
  br i1 %12, label %14, label %13

13:                                               ; preds = %1
  store i32 1, ptr %5, align 4
  br label %202

14:                                               ; preds = %1
  %15 = load i32, ptr @errordata_stack_depth, align 4
  %16 = sext i32 %15 to i64
  %17 = getelementptr inbounds [5 x %struct.ErrorData], ptr @errordata, i64 0, i64 %16
  store ptr %17, ptr %3, align 8
  %18 = load i32, ptr @recursion_depth, align 4
  %19 = add i32 %18, 1
  store i32 %19, ptr @recursion_depth, align 4
  %20 = load ptr, ptr %3, align 8
  %21 = getelementptr inbounds nuw %struct.ErrorData, ptr %20, i32 0, i32 27
  %22 = load ptr, ptr %21, align 8
  %23 = call ptr @MemoryContextSwitchTo(ptr noundef %22)
  store ptr %23, ptr %4, align 8
  %24 = load ptr, ptr %2, align 8
  %25 = getelementptr inbounds nuw %struct.ErrorData, ptr %24, i32 0, i32 10
  %26 = load i32, ptr %25, align 8
  %27 = icmp ne i32 %26, 0
  br i1 %27, label %28, label %34

28:                                               ; preds = %14
  %29 = load ptr, ptr %2, align 8
  %30 = getelementptr inbounds nuw %struct.ErrorData, ptr %29, i32 0, i32 10
  %31 = load i32, ptr %30, align 8
  %32 = load ptr, ptr %3, align 8
  %33 = getelementptr inbounds nuw %struct.ErrorData, ptr %32, i32 0, i32 10
  store i32 %31, ptr %33, align 8
  br label %34

34:                                               ; preds = %28, %14
  %35 = load ptr, ptr %2, align 8
  %36 = getelementptr inbounds nuw %struct.ErrorData, ptr %35, i32 0, i32 11
  %37 = load ptr, ptr %36, align 8
  %38 = icmp ne ptr %37, null
  br i1 %38, label %39, label %46

39:                                               ; preds = %34
  %40 = load ptr, ptr %2, align 8
  %41 = getelementptr inbounds nuw %struct.ErrorData, ptr %40, i32 0, i32 11
  %42 = load ptr, ptr %41, align 8
  %43 = call ptr @pstrdup(ptr noundef %42)
  %44 = load ptr, ptr %3, align 8
  %45 = getelementptr inbounds nuw %struct.ErrorData, ptr %44, i32 0, i32 11
  store ptr %43, ptr %45, align 8
  br label %46

46:                                               ; preds = %39, %34
  %47 = load ptr, ptr %2, align 8
  %48 = getelementptr inbounds nuw %struct.ErrorData, ptr %47, i32 0, i32 12
  %49 = load ptr, ptr %48, align 8
  %50 = icmp ne ptr %49, null
  br i1 %50, label %51, label %58

51:                                               ; preds = %46
  %52 = load ptr, ptr %2, align 8
  %53 = getelementptr inbounds nuw %struct.ErrorData, ptr %52, i32 0, i32 12
  %54 = load ptr, ptr %53, align 8
  %55 = call ptr @pstrdup(ptr noundef %54)
  %56 = load ptr, ptr %3, align 8
  %57 = getelementptr inbounds nuw %struct.ErrorData, ptr %56, i32 0, i32 12
  store ptr %55, ptr %57, align 8
  br label %58

58:                                               ; preds = %51, %46
  %59 = load ptr, ptr %2, align 8
  %60 = getelementptr inbounds nuw %struct.ErrorData, ptr %59, i32 0, i32 13
  %61 = load ptr, ptr %60, align 8
  %62 = icmp ne ptr %61, null
  br i1 %62, label %63, label %70

63:                                               ; preds = %58
  %64 = load ptr, ptr %2, align 8
  %65 = getelementptr inbounds nuw %struct.ErrorData, ptr %64, i32 0, i32 13
  %66 = load ptr, ptr %65, align 8
  %67 = call ptr @pstrdup(ptr noundef %66)
  %68 = load ptr, ptr %3, align 8
  %69 = getelementptr inbounds nuw %struct.ErrorData, ptr %68, i32 0, i32 13
  store ptr %67, ptr %69, align 8
  br label %70

70:                                               ; preds = %63, %58
  %71 = load ptr, ptr %2, align 8
  %72 = getelementptr inbounds nuw %struct.ErrorData, ptr %71, i32 0, i32 14
  %73 = load ptr, ptr %72, align 8
  %74 = icmp ne ptr %73, null
  br i1 %74, label %75, label %82

75:                                               ; preds = %70
  %76 = load ptr, ptr %2, align 8
  %77 = getelementptr inbounds nuw %struct.ErrorData, ptr %76, i32 0, i32 14
  %78 = load ptr, ptr %77, align 8
  %79 = call ptr @pstrdup(ptr noundef %78)
  %80 = load ptr, ptr %3, align 8
  %81 = getelementptr inbounds nuw %struct.ErrorData, ptr %80, i32 0, i32 14
  store ptr %79, ptr %81, align 8
  br label %82

82:                                               ; preds = %75, %70
  %83 = load ptr, ptr %2, align 8
  %84 = getelementptr inbounds nuw %struct.ErrorData, ptr %83, i32 0, i32 15
  %85 = load ptr, ptr %84, align 8
  %86 = icmp ne ptr %85, null
  br i1 %86, label %87, label %94

87:                                               ; preds = %82
  %88 = load ptr, ptr %2, align 8
  %89 = getelementptr inbounds nuw %struct.ErrorData, ptr %88, i32 0, i32 15
  %90 = load ptr, ptr %89, align 8
  %91 = call ptr @pstrdup(ptr noundef %90)
  %92 = load ptr, ptr %3, align 8
  %93 = getelementptr inbounds nuw %struct.ErrorData, ptr %92, i32 0, i32 15
  store ptr %91, ptr %93, align 8
  br label %94

94:                                               ; preds = %87, %82
  %95 = load ptr, ptr %2, align 8
  %96 = getelementptr inbounds nuw %struct.ErrorData, ptr %95, i32 0, i32 16
  %97 = load ptr, ptr %96, align 8
  %98 = icmp ne ptr %97, null
  br i1 %98, label %99, label %106

99:                                               ; preds = %94
  %100 = load ptr, ptr %2, align 8
  %101 = getelementptr inbounds nuw %struct.ErrorData, ptr %100, i32 0, i32 16
  %102 = load ptr, ptr %101, align 8
  %103 = call ptr @pstrdup(ptr noundef %102)
  %104 = load ptr, ptr %3, align 8
  %105 = getelementptr inbounds nuw %struct.ErrorData, ptr %104, i32 0, i32 16
  store ptr %103, ptr %105, align 8
  br label %106

106:                                              ; preds = %99, %94
  %107 = load ptr, ptr %2, align 8
  %108 = getelementptr inbounds nuw %struct.ErrorData, ptr %107, i32 0, i32 18
  %109 = load ptr, ptr %108, align 8
  %110 = icmp ne ptr %109, null
  br i1 %110, label %111, label %118

111:                                              ; preds = %106
  %112 = load ptr, ptr %2, align 8
  %113 = getelementptr inbounds nuw %struct.ErrorData, ptr %112, i32 0, i32 18
  %114 = load ptr, ptr %113, align 8
  %115 = call ptr @pstrdup(ptr noundef %114)
  %116 = load ptr, ptr %3, align 8
  %117 = getelementptr inbounds nuw %struct.ErrorData, ptr %116, i32 0, i32 18
  store ptr %115, ptr %117, align 8
  br label %118

118:                                              ; preds = %111, %106
  %119 = load ptr, ptr %2, align 8
  %120 = getelementptr inbounds nuw %struct.ErrorData, ptr %119, i32 0, i32 19
  %121 = load ptr, ptr %120, align 8
  %122 = icmp ne ptr %121, null
  br i1 %122, label %123, label %130

123:                                              ; preds = %118
  %124 = load ptr, ptr %2, align 8
  %125 = getelementptr inbounds nuw %struct.ErrorData, ptr %124, i32 0, i32 19
  %126 = load ptr, ptr %125, align 8
  %127 = call ptr @pstrdup(ptr noundef %126)
  %128 = load ptr, ptr %3, align 8
  %129 = getelementptr inbounds nuw %struct.ErrorData, ptr %128, i32 0, i32 19
  store ptr %127, ptr %129, align 8
  br label %130

130:                                              ; preds = %123, %118
  %131 = load ptr, ptr %2, align 8
  %132 = getelementptr inbounds nuw %struct.ErrorData, ptr %131, i32 0, i32 20
  %133 = load ptr, ptr %132, align 8
  %134 = icmp ne ptr %133, null
  br i1 %134, label %135, label %142

135:                                              ; preds = %130
  %136 = load ptr, ptr %2, align 8
  %137 = getelementptr inbounds nuw %struct.ErrorData, ptr %136, i32 0, i32 20
  %138 = load ptr, ptr %137, align 8
  %139 = call ptr @pstrdup(ptr noundef %138)
  %140 = load ptr, ptr %3, align 8
  %141 = getelementptr inbounds nuw %struct.ErrorData, ptr %140, i32 0, i32 20
  store ptr %139, ptr %141, align 8
  br label %142

142:                                              ; preds = %135, %130
  %143 = load ptr, ptr %2, align 8
  %144 = getelementptr inbounds nuw %struct.ErrorData, ptr %143, i32 0, i32 21
  %145 = load ptr, ptr %144, align 8
  %146 = icmp ne ptr %145, null
  br i1 %146, label %147, label %154

147:                                              ; preds = %142
  %148 = load ptr, ptr %2, align 8
  %149 = getelementptr inbounds nuw %struct.ErrorData, ptr %148, i32 0, i32 21
  %150 = load ptr, ptr %149, align 8
  %151 = call ptr @pstrdup(ptr noundef %150)
  %152 = load ptr, ptr %3, align 8
  %153 = getelementptr inbounds nuw %struct.ErrorData, ptr %152, i32 0, i32 21
  store ptr %151, ptr %153, align 8
  br label %154

154:                                              ; preds = %147, %142
  %155 = load ptr, ptr %2, align 8
  %156 = getelementptr inbounds nuw %struct.ErrorData, ptr %155, i32 0, i32 22
  %157 = load ptr, ptr %156, align 8
  %158 = icmp ne ptr %157, null
  br i1 %158, label %159, label %166

159:                                              ; preds = %154
  %160 = load ptr, ptr %2, align 8
  %161 = getelementptr inbounds nuw %struct.ErrorData, ptr %160, i32 0, i32 22
  %162 = load ptr, ptr %161, align 8
  %163 = call ptr @pstrdup(ptr noundef %162)
  %164 = load ptr, ptr %3, align 8
  %165 = getelementptr inbounds nuw %struct.ErrorData, ptr %164, i32 0, i32 22
  store ptr %163, ptr %165, align 8
  br label %166

166:                                              ; preds = %159, %154
  %167 = load ptr, ptr %2, align 8
  %168 = getelementptr inbounds nuw %struct.ErrorData, ptr %167, i32 0, i32 23
  %169 = load i32, ptr %168, align 8
  %170 = load ptr, ptr %3, align 8
  %171 = getelementptr inbounds nuw %struct.ErrorData, ptr %170, i32 0, i32 23
  store i32 %169, ptr %171, align 8
  %172 = load ptr, ptr %2, align 8
  %173 = getelementptr inbounds nuw %struct.ErrorData, ptr %172, i32 0, i32 24
  %174 = load i32, ptr %173, align 4
  %175 = load ptr, ptr %3, align 8
  %176 = getelementptr inbounds nuw %struct.ErrorData, ptr %175, i32 0, i32 24
  store i32 %174, ptr %176, align 4
  %177 = load ptr, ptr %2, align 8
  %178 = getelementptr inbounds nuw %struct.ErrorData, ptr %177, i32 0, i32 25
  %179 = load ptr, ptr %178, align 8
  %180 = icmp ne ptr %179, null
  br i1 %180, label %181, label %188

181:                                              ; preds = %166
  %182 = load ptr, ptr %2, align 8
  %183 = getelementptr inbounds nuw %struct.ErrorData, ptr %182, i32 0, i32 25
  %184 = load ptr, ptr %183, align 8
  %185 = call ptr @pstrdup(ptr noundef %184)
  %186 = load ptr, ptr %3, align 8
  %187 = getelementptr inbounds nuw %struct.ErrorData, ptr %186, i32 0, i32 25
  store ptr %185, ptr %187, align 8
  br label %188

188:                                              ; preds = %181, %166
  %189 = load ptr, ptr %4, align 8
  %190 = call ptr @MemoryContextSwitchTo(ptr noundef %189)
  %191 = load i32, ptr @recursion_depth, align 4
  %192 = add i32 %191, -1
  store i32 %192, ptr @recursion_depth, align 4
  %193 = load ptr, ptr %2, align 8
  %194 = getelementptr inbounds nuw %struct.ErrorData, ptr %193, i32 0, i32 5
  %195 = load ptr, ptr %194, align 8
  %196 = load ptr, ptr %2, align 8
  %197 = getelementptr inbounds nuw %struct.ErrorData, ptr %196, i32 0, i32 6
  %198 = load i32, ptr %197, align 8
  %199 = load ptr, ptr %2, align 8
  %200 = getelementptr inbounds nuw %struct.ErrorData, ptr %199, i32 0, i32 7
  %201 = load ptr, ptr %200, align 8
  call void @errfinish(ptr noundef %195, i32 noundef %198, ptr noundef %201)
  store i32 0, ptr %5, align 4
  br label %202

202:                                              ; preds = %188, %13
  call void @llvm.lifetime.end.p0(i64 8, ptr %4) #16
  call void @llvm.lifetime.end.p0(i64 8, ptr %3) #16
  %203 = load i32, ptr %5, align 4
  switch i32 %203, label %205 [
    i32 0, label %204
    i32 1, label %204
  ]

204:                                              ; preds = %202, %202
  ret void

205:                                              ; preds = %202
  unreachable
}