; Function Attrs: nounwind uwtable
define dso_local void @ThrowErrorData(ptr noundef readonly captures(none) %0) local_unnamed_addr #3 {
  %2 = load i32, ptr %0, align 8
  %3 = getelementptr inbounds nuw i8, ptr %0, i64 32
  %4 = load ptr, ptr %3, align 8
  %5 = tail call zeroext i1 @errstart(i32 noundef %2, ptr noundef %4)
  br i1 %5, label %6, label %106

6:                                                ; preds = %1
  %7 = load i32, ptr @errordata_stack_depth, align 4
  %8 = sext i32 %7 to i64
  %9 = getelementptr inbounds [5 x %struct.ErrorData], ptr @errordata, i64 0, i64 %8
  %10 = load i32, ptr @recursion_depth, align 4
  %11 = add i32 %10, 1
  store i32 %11, ptr @recursion_depth, align 4
  %12 = getelementptr inbounds nuw i8, ptr %9, i64 176
  %13 = load ptr, ptr %12, align 8
  %14 = load ptr, ptr @CurrentMemoryContext, align 8
  store ptr %13, ptr @CurrentMemoryContext, align 8
  %15 = getelementptr inbounds nuw i8, ptr %0, i64 48
  %16 = load i32, ptr %15, align 8
  %.not = icmp eq i32 %16, 0
  br i1 %.not, label %19, label %17

17:                                               ; preds = %6
  %18 = getelementptr inbounds nuw i8, ptr %9, i64 48
  store i32 %16, ptr %18, align 8
  br label %19

19:                                               ; preds = %17, %6
  %20 = getelementptr inbounds nuw i8, ptr %0, i64 56
  %21 = load ptr, ptr %20, align 8
  %.not62 = icmp eq ptr %21, null
  br i1 %.not62, label %25, label %22

22:                                               ; preds = %19
  %23 = tail call ptr @pstrdup(ptr noundef nonnull %21) #32
  %24 = getelementptr inbounds nuw i8, ptr %9, i64 56
  store ptr %23, ptr %24, align 8
  br label %25

25:                                               ; preds = %22, %19
  %26 = getelementptr inbounds nuw i8, ptr %0, i64 64
  %27 = load ptr, ptr %26, align 8
  %.not63 = icmp eq ptr %27, null
  br i1 %.not63, label %31, label %28

28:                                               ; preds = %25
  %29 = tail call ptr @pstrdup(ptr noundef nonnull %27) #32
  %30 = getelementptr inbounds nuw i8, ptr %9, i64 64
  store ptr %29, ptr %30, align 8
  br label %31

31:                                               ; preds = %28, %25
  %32 = getelementptr inbounds nuw i8, ptr %0, i64 72
  %33 = load ptr, ptr %32, align 8
  %.not64 = icmp eq ptr %33, null
  br i1 %.not64, label %37, label %34

34:                                               ; preds = %31
  %35 = tail call ptr @pstrdup(ptr noundef nonnull %33) #32
  %36 = getelementptr inbounds nuw i8, ptr %9, i64 72
  store ptr %35, ptr %36, align 8
  br label %37

37:                                               ; preds = %34, %31
  %38 = getelementptr inbounds nuw i8, ptr %0, i64 80
  %39 = load ptr, ptr %38, align 8
  %.not65 = icmp eq ptr %39, null
  br i1 %.not65, label %43, label %40

40:                                               ; preds = %37
  %41 = tail call ptr @pstrdup(ptr noundef nonnull %39) #32
  %42 = getelementptr inbounds nuw i8, ptr %9, i64 80
  store ptr %41, ptr %42, align 8
  br label %43

43:                                               ; preds = %40, %37
  %44 = getelementptr inbounds nuw i8, ptr %0, i64 88
  %45 = load ptr, ptr %44, align 8
  %.not66 = icmp eq ptr %45, null
  br i1 %.not66, label %49, label %46

46:                                               ; preds = %43
  %47 = tail call ptr @pstrdup(ptr noundef nonnull %45) #32
  %48 = getelementptr inbounds nuw i8, ptr %9, i64 88
  store ptr %47, ptr %48, align 8
  br label %49

49:                                               ; preds = %46, %43
  %50 = getelementptr inbounds nuw i8, ptr %0, i64 96
  %51 = load ptr, ptr %50, align 8
  %.not67 = icmp eq ptr %51, null
  br i1 %.not67, label %55, label %52

52:                                               ; preds = %49
  %53 = tail call ptr @pstrdup(ptr noundef nonnull %51) #32
  %54 = getelementptr inbounds nuw i8, ptr %9, i64 96
  store ptr %53, ptr %54, align 8
  br label %55

55:                                               ; preds = %52, %49
  %56 = getelementptr inbounds nuw i8, ptr %0, i64 112
  %57 = load ptr, ptr %56, align 8
  %.not68 = icmp eq ptr %57, null
  br i1 %.not68, label %61, label %58

58:                                               ; preds = %55
  %59 = tail call ptr @pstrdup(ptr noundef nonnull %57) #32
  %60 = getelementptr inbounds nuw i8, ptr %9, i64 112
  store ptr %59, ptr %60, align 8
  br label %61

61:                                               ; preds = %58, %55
  %62 = getelementptr inbounds nuw i8, ptr %0, i64 120
  %63 = load ptr, ptr %62, align 8
  %.not69 = icmp eq ptr %63, null
  br i1 %.not69, label %67, label %64

64:                                               ; preds = %61
  %65 = tail call ptr @pstrdup(ptr noundef nonnull %63) #32
  %66 = getelementptr inbounds nuw i8, ptr %9, i64 120
  store ptr %65, ptr %66, align 8
  br label %67

67:                                               ; preds = %64, %61
  %68 = getelementptr inbounds nuw i8, ptr %0, i64 128
  %69 = load ptr, ptr %68, align 8
  %.not70 = icmp eq ptr %69, null
  br i1 %.not70, label %73, label %70

70:                                               ; preds = %67
  %71 = tail call ptr @pstrdup(ptr noundef nonnull %69) #32
  %72 = getelementptr inbounds nuw i8, ptr %9, i64 128
  store ptr %71, ptr %72, align 8
  br label %73

73:                                               ; preds = %70, %67
  %74 = getelementptr inbounds nuw i8, ptr %0, i64 136
  %75 = load ptr, ptr %74, align 8
  %.not71 = icmp eq ptr %75, null
  br i1 %.not71, label %79, label %76

76:                                               ; preds = %73
  %77 = tail call ptr @pstrdup(ptr noundef nonnull %75) #32
  %78 = getelementptr inbounds nuw i8, ptr %9, i64 136
  store ptr %77, ptr %78, align 8
  br label %79

79:                                               ; preds = %76, %73
  %80 = getelementptr inbounds nuw i8, ptr %0, i64 144
  %81 = load ptr, ptr %80, align 8
  %.not72 = icmp eq ptr %81, null
  br i1 %.not72, label %85, label %82

82:                                               ; preds = %79
  %83 = tail call ptr @pstrdup(ptr noundef nonnull %81) #32
  %84 = getelementptr inbounds nuw i8, ptr %9, i64 144
  store ptr %83, ptr %84, align 8
  br label %85

85:                                               ; preds = %82, %79
  %86 = getelementptr inbounds nuw i8, ptr %0, i64 152
  %87 = load i32, ptr %86, align 8
  %88 = getelementptr inbounds nuw i8, ptr %9, i64 152
  store i32 %87, ptr %88, align 8
  %89 = getelementptr inbounds nuw i8, ptr %0, i64 156
  %90 = load i32, ptr %89, align 4
  %91 = getelementptr inbounds nuw i8, ptr %9, i64 156
  store i32 %90, ptr %91, align 4
  %92 = getelementptr inbounds nuw i8, ptr %0, i64 160
  %93 = load ptr, ptr %92, align 8
  %.not73 = icmp eq ptr %93, null
  br i1 %.not73, label %97, label %94

94:                                               ; preds = %85
  %95 = tail call ptr @pstrdup(ptr noundef nonnull %93) #32
  %96 = getelementptr inbounds nuw i8, ptr %9, i64 160
  store ptr %95, ptr %96, align 8
  br label %97

97:                                               ; preds = %94, %85
  store ptr %14, ptr @CurrentMemoryContext, align 8
  %98 = load i32, ptr @recursion_depth, align 4
  %99 = add i32 %98, -1
  store i32 %99, ptr @recursion_depth, align 4
  %100 = getelementptr inbounds nuw i8, ptr %0, i64 8
  %101 = load ptr, ptr %100, align 8
  %102 = getelementptr inbounds nuw i8, ptr %0, i64 16
  %103 = load i32, ptr %102, align 8
  %104 = getelementptr inbounds nuw i8, ptr %0, i64 24
  %105 = load ptr, ptr %104, align 8
  tail call void @errfinish(ptr noundef %101, i32 noundef %103, ptr noundef %105)
  br label %106

106:                                              ; preds = %1, %97
  ret void
}